; ModuleID = '21/946.c'
source_filename = "21/946.c"
target datalayout = "e-m:e-p270:32:32-p271:32:32-p272:64:64-i64:64-f80:128-n8:16:32:64-S128"
target triple = "x86_64-pc-linux-gnu"

@.str = private unnamed_addr constant [3 x i8] c"%d\00", align 1
@.str.1 = private unnamed_addr constant [4 x i8] c",%d\00", align 1
@.str.2 = private unnamed_addr constant [2 x i8] c"\0A\00", align 1

; Function Attrs: noinline nounwind uwtable
define dso_local i32 @main() #0 {
  %1 = alloca i32, align 4
  %2 = alloca i32, align 4
  %3 = alloca i32, align 4
  %4 = alloca i32, align 4
  %5 = alloca i32, align 4
  %6 = alloca [301 x i32], align 16
  %7 = alloca i32, align 4
  %8 = alloca double, align 8
  store i32 0, i32* %1, align 4
  store i32 0, i32* %3, align 4
  %9 = call i32 (i8*, ...) @__isoc99_scanf(i8* getelementptr inbounds ([3 x i8], [3 x i8]* @.str, i64 0, i64 0), i32* %2)
  store i32 0, i32* %4, align 4
  br label %10

10:                                               ; preds = %20, %0
  %11 = load i32, i32* %4, align 4
  %12 = load i32, i32* %2, align 4
  %13 = icmp slt i32 %11, %12
  br i1 %13, label %14, label %23

14:                                               ; preds = %10
  %15 = getelementptr inbounds [301 x i32], [301 x i32]* %6, i64 0, i64 0
  %16 = load i32, i32* %4, align 4
  %17 = sext i32 %16 to i64
  %18 = getelementptr inbounds i32, i32* %15, i64 %17
  %19 = call i32 (i8*, ...) @__isoc99_scanf(i8* getelementptr inbounds ([3 x i8], [3 x i8]* @.str, i64 0, i64 0), i32* %18)
  br label %20

20:                                               ; preds = %14
  %21 = load i32, i32* %4, align 4
  %22 = add nsw i32 %21, 1
  store i32 %22, i32* %4, align 4
  br label %10

23:                                               ; preds = %10
  store i32 0, i32* %4, align 4
  br label %24

24:                                               ; preds = %36, %23
  %25 = load i32, i32* %4, align 4
  %26 = load i32, i32* %2, align 4
  %27 = icmp slt i32 %25, %26
  br i1 %27, label %28, label %39

28:                                               ; preds = %24
  %29 = getelementptr inbounds [301 x i32], [301 x i32]* %6, i64 0, i64 0
  %30 = load i32, i32* %4, align 4
  %31 = sext i32 %30 to i64
  %32 = getelementptr inbounds i32, i32* %29, i64 %31
  %33 = load i32, i32* %32, align 4
  %34 = load i32, i32* %3, align 4
  %35 = add nsw i32 %34, %33
  store i32 %35, i32* %3, align 4
  br label %36

36:                                               ; preds = %28
  %37 = load i32, i32* %4, align 4
  %38 = add nsw i32 %37, 1
  store i32 %38, i32* %4, align 4
  br label %24

39:                                               ; preds = %24
  %40 = load i32, i32* %3, align 4
  %41 = sitofp i32 %40 to double
  %42 = load i32, i32* %2, align 4
  %43 = sitofp i32 %42 to double
  %44 = fdiv double %41, %43
  store double %44, double* %8, align 8
  store i32 1, i32* %5, align 4
  br label %45

45:                                               ; preds = %104, %39
  %46 = load i32, i32* %5, align 4
  %47 = load i32, i32* %2, align 4
  %48 = icmp slt i32 %46, %47
  br i1 %48, label %49, label %107

49:                                               ; preds = %45
  store i32 0, i32* %4, align 4
  br label %50

50:                                               ; preds = %100, %49
  %51 = load i32, i32* %4, align 4
  %52 = load i32, i32* %2, align 4
  %53 = load i32, i32* %5, align 4
  %54 = sub nsw i32 %52, %53
  %55 = icmp slt i32 %51, %54
  br i1 %55, label %56, label %103

56:                                               ; preds = %50
  %57 = load double, double* %8, align 8
  %58 = getelementptr inbounds [301 x i32], [301 x i32]* %6, i64 0, i64 0
  %59 = load i32, i32* %4, align 4
  %60 = sext i32 %59 to i64
  %61 = getelementptr inbounds i32, i32* %58, i64 %60
  %62 = load i32, i32* %61, align 4
  %63 = sitofp i32 %62 to double
  %64 = fsub double %57, %63
  %65 = call double @llvm.fabs.f64(double %64)
  %66 = load double, double* %8, align 8
  %67 = getelementptr inbounds [301 x i32], [301 x i32]* %6, i64 0, i64 0
  %68 = load i32, i32* %4, align 4
  %69 = sext i32 %68 to i64
  %70 = getelementptr inbounds i32, i32* %67, i64 %69
  %71 = getelementptr inbounds i32, i32* %70, i64 1
  %72 = load i32, i32* %71, align 4
  %73 = sitofp i32 %72 to double
  %74 = fsub double %66, %73
  %75 = call double @llvm.fabs.f64(double %74)
  %76 = fcmp olt double %65, %75
  br i1 %76, label %77, label %99

77:                                               ; preds = %56
  %78 = getelementptr inbounds [301 x i32], [301 x i32]* %6, i64 0, i64 0
  %79 = load i32, i32* %4, align 4
  %80 = sext i32 %79 to i64
  %81 = getelementptr inbounds i32, i32* %78, i64 %80
  %82 = load i32, i32* %81, align 4
  store i32 %82, i32* %7, align 4
  %83 = getelementptr inbounds [301 x i32], [301 x i32]* %6, i64 0, i64 0
  %84 = load i32, i32* %4, align 4
  %85 = sext i32 %84 to i64
  %86 = getelementptr inbounds i32, i32* %83, i64 %85
  %87 = getelementptr inbounds i32, i32* %86, i64 1
  %88 = load i32, i32* %87, align 4
  %89 = getelementptr inbounds [301 x i32], [301 x i32]* %6, i64 0, i64 0
  %90 = load i32, i32* %4, align 4
  %91 = sext i32 %90 to i64
  %92 = getelementptr inbounds i32, i32* %89, i64 %91
  store i32 %88, i32* %92, align 4
  %93 = load i32, i32* %7, align 4
  %94 = getelementptr inbounds [301 x i32], [301 x i32]* %6, i64 0, i64 0
  %95 = load i32, i32* %4, align 4
  %96 = sext i32 %95 to i64
  %97 = getelementptr inbounds i32, i32* %94, i64 %96
  %98 = getelementptr inbounds i32, i32* %97, i64 1
  store i32 %93, i32* %98, align 4
  br label %99

99:                                               ; preds = %77, %56
  br label %100

100:                                              ; preds = %99
  %101 = load i32, i32* %4, align 4
  %102 = add nsw i32 %101, 1
  store i32 %102, i32* %4, align 4
  br label %50

103:                                              ; preds = %50
  br label %104

104:                                              ; preds = %103
  %105 = load i32, i32* %5, align 4
  %106 = add nsw i32 %105, 1
  store i32 %106, i32* %5, align 4
  br label %45

107:                                              ; preds = %45
  store i32 0, i32* %7, align 4
  store i32 0, i32* %4, align 4
  br label %108

108:                                              ; preds = %174, %107
  %109 = load i32, i32* %4, align 4
  %110 = load i32, i32* %2, align 4
  %111 = icmp slt i32 %109, %110
  br i1 %111, label %112, label %177

112:                                              ; preds = %108
  %113 = load double, double* %8, align 8
  %114 = getelementptr inbounds [301 x i32], [301 x i32]* %6, i64 0, i64 0
  %115 = load i32, i32* %4, align 4
  %116 = sext i32 %115 to i64
  %117 = getelementptr inbounds i32, i32* %114, i64 %116
  %118 = load i32, i32* %117, align 4
  %119 = sitofp i32 %118 to double
  %120 = fsub double %113, %119
  %121 = call double @llvm.fabs.f64(double %120)
  %122 = load double, double* %8, align 8
  %123 = getelementptr inbounds [301 x i32], [301 x i32]* %6, i64 0, i64 0
  %124 = load i32, i32* %4, align 4
  %125 = sext i32 %124 to i64
  %126 = getelementptr inbounds i32, i32* %123, i64 %125
  %127 = getelementptr inbounds i32, i32* %126, i64 1
  %128 = load i32, i32* %127, align 4
  %129 = sitofp i32 %128 to double
  %130 = fsub double %122, %129
  %131 = call double @llvm.fabs.f64(double %130)
  %132 = fcmp une double %121, %131
  br i1 %132, label %133, label %153

133:                                              ; preds = %112
  %134 = load i32, i32* %7, align 4
  %135 = icmp eq i32 %134, 0
  br i1 %135, label %136, label %145

136:                                              ; preds = %133
  %137 = getelementptr inbounds [301 x i32], [301 x i32]* %6, i64 0, i64 0
  %138 = load i32, i32* %4, align 4
  %139 = sext i32 %138 to i64
  %140 = getelementptr inbounds i32, i32* %137, i64 %139
  %141 = load i32, i32* %140, align 4
  %142 = call i32 (i8*, ...) @printf(i8* getelementptr inbounds ([3 x i8], [3 x i8]* @.str, i64 0, i64 0), i32 %141)
  %143 = load i32, i32* %7, align 4
  %144 = add nsw i32 %143, 1
  store i32 %144, i32* %7, align 4
  br label %152

145:                                              ; preds = %133
  %146 = getelementptr inbounds [301 x i32], [301 x i32]* %6, i64 0, i64 0
  %147 = load i32, i32* %4, align 4
  %148 = sext i32 %147 to i64
  %149 = getelementptr inbounds i32, i32* %146, i64 %148
  %150 = load i32, i32* %149, align 4
  %151 = call i32 (i8*, ...) @printf(i8* getelementptr inbounds ([4 x i8], [4 x i8]* @.str.1, i64 0, i64 0), i32 %150)
  br label %152

152:                                              ; preds = %145, %136
  br label %177

153:                                              ; preds = %112
  %154 = load i32, i32* %7, align 4
  %155 = icmp eq i32 %154, 0
  br i1 %155, label %156, label %165

156:                                              ; preds = %153
  %157 = getelementptr inbounds [301 x i32], [301 x i32]* %6, i64 0, i64 0
  %158 = load i32, i32* %4, align 4
  %159 = sext i32 %158 to i64
  %160 = getelementptr inbounds i32, i32* %157, i64 %159
  %161 = load i32, i32* %160, align 4
  %162 = call i32 (i8*, ...) @printf(i8* getelementptr inbounds ([3 x i8], [3 x i8]* @.str, i64 0, i64 0), i32 %161)
  %163 = load i32, i32* %7, align 4
  %164 = add nsw i32 %163, 1
  store i32 %164, i32* %7, align 4
  br label %172

165:                                              ; preds = %153
  %166 = getelementptr inbounds [301 x i32], [301 x i32]* %6, i64 0, i64 0
  %167 = load i32, i32* %4, align 4
  %168 = sext i32 %167 to i64
  %169 = getelementptr inbounds i32, i32* %166, i64 %168
  %170 = load i32, i32* %169, align 4
  %171 = call i32 (i8*, ...) @printf(i8* getelementptr inbounds ([4 x i8], [4 x i8]* @.str.1, i64 0, i64 0), i32 %170)
  br label %172

172:                                              ; preds = %165, %156
  br label %173

173:                                              ; preds = %172
  br label %174

174:                                              ; preds = %173
  %175 = load i32, i32* %4, align 4
  %176 = add nsw i32 %175, 1
  store i32 %176, i32* %4, align 4
  br label %108

177:                                              ; preds = %152, %108
  %178 = call i32 (i8*, ...) @printf(i8* getelementptr inbounds ([2 x i8], [2 x i8]* @.str.2, i64 0, i64 0))
  ret i32 0
}

declare dso_local i32 @__isoc99_scanf(i8*, ...) #1

; Function Attrs: nounwind readnone speculatable willreturn
declare double @llvm.fabs.f64(double) #2

declare dso_local i32 @printf(i8*, ...) #1


!llvm.module.flags = !{!0}
!llvm.ident = !{!1}

!0 = !{i32 1, !"wchar_size", i32 4}
!1 = !{!"clang version 10.0.0-4ubuntu1 "}
